target datalayout = "e-m:e-p270:32:32-p271:32:32-p272:64:64-i64:64-i128:128-f80:128-n8:16:32:64-S128"
target triple = "x86_64-unknown-linux-gnu"

@.str = private unnamed_addr constant [126 x i8] c"generated/home/dtcxzyw/WorkSpace/Projects/compilers/llvm-opt-benchmark/bench/libquic/libquic/boringssl/crypto/asn1/asn1_lib.c\00", align 1

; Function Attrs: nounwind uwtable
define internal i32 @asn1_get_length(ptr noundef %pp, ptr noundef %inf, ptr noundef %rl, i64 noundef %max) #0 {
entry:
  %retval = alloca i32, align 4
  %pp.addr = alloca ptr, align 8
  %inf.addr = alloca ptr, align 8
  %rl.addr = alloca ptr, align 8
  %max.addr = alloca i64, align 8
  %p = alloca ptr, align 8
  %ret = alloca i64, align 8
  %i = alloca i64, align 8
  store ptr %pp, ptr %pp.addr, align 8
  store ptr %inf, ptr %inf.addr, align 8
  store ptr %rl, ptr %rl.addr, align 8
  store i64 %max, ptr %max.addr, align 8
  %0 = load ptr, ptr %pp.addr, align 8
  %1 = load ptr, ptr %0, align 8
  store ptr %1, ptr %p, align 8
  store i64 0, ptr %ret, align 8
  %2 = load i64, ptr %max.addr, align 8
  %dec = add nsw i64 %2, -1
  store i64 %dec, ptr %max.addr, align 8
  %cmp = icmp slt i64 %2, 1
  br i1 %cmp, label %if.then, label %if.end

if.then:                                          ; preds = %entry
  store i32 0, ptr %retval, align 4
  br label %return

if.end:                                           ; preds = %entry
  %3 = load ptr, ptr %p, align 8
  %4 = load i8, ptr %3, align 1
  %conv = zext i8 %4 to i32
  %cmp1 = icmp eq i32 %conv, 128
  br i1 %cmp1, label %if.then3, label %if.else

if.then3:                                         ; preds = %if.end
  %5 = load ptr, ptr %inf.addr, align 8
  store i32 1, ptr %5, align 4
  store i64 0, ptr %ret, align 8
  %6 = load ptr, ptr %p, align 8
  %incdec.ptr = getelementptr inbounds i8, ptr %6, i32 1
  store ptr %incdec.ptr, ptr %p, align 8
  br label %if.end23

if.else:                                          ; preds = %if.end
  %7 = load ptr, ptr %inf.addr, align 8
  store i32 0, ptr %7, align 4
  %8 = load ptr, ptr %p, align 8
  %9 = load i8, ptr %8, align 1
  %conv4 = zext i8 %9 to i32
  %and = and i32 %conv4, 127
  %conv5 = sext i32 %and to i64
  store i64 %conv5, ptr %i, align 8
  %10 = load ptr, ptr %p, align 8
  %incdec.ptr6 = getelementptr inbounds i8, ptr %10, i32 1
  store ptr %incdec.ptr6, ptr %p, align 8
  %11 = load i8, ptr %10, align 1
  %conv7 = zext i8 %11 to i32
  %and8 = and i32 %conv7, 128
  %tobool = icmp ne i32 %and8, 0
  br i1 %tobool, label %if.then9, label %if.else21

if.then9:                                         ; preds = %if.else
  %12 = load i64, ptr %i, align 8
  %cmp10 = icmp ugt i64 %12, 8
  br i1 %cmp10, label %if.then14, label %lor.lhs.false

lor.lhs.false:                                    ; preds = %if.then9
  %13 = load i64, ptr %max.addr, align 8
  %14 = load i64, ptr %i, align 8
  %cmp12 = icmp slt i64 %13, %14
  br i1 %cmp12, label %if.then14, label %if.end15

if.then14:                                        ; preds = %lor.lhs.false, %if.then9
  store i32 0, ptr %retval, align 4
  br label %return

if.end15:                                         ; preds = %lor.lhs.false
  br label %while.cond

while.cond:                                       ; preds = %while.body, %if.end15
  %15 = load i64, ptr %i, align 8
  %dec16 = add i64 %15, -1
  store i64 %dec16, ptr %i, align 8
  %cmp17 = icmp ugt i64 %15, 0
  br i1 %cmp17, label %while.body, label %while.end

while.body:                                       ; preds = %while.cond
  %16 = load i64, ptr %ret, align 8
  %shl = shl i64 %16, 8
  store i64 %shl, ptr %ret, align 8
  %17 = load ptr, ptr %p, align 8
  %incdec.ptr19 = getelementptr inbounds i8, ptr %17, i32 1
  store ptr %incdec.ptr19, ptr %p, align 8
  %18 = load i8, ptr %17, align 1
  %conv20 = zext i8 %18 to i64
  %19 = load i64, ptr %ret, align 8
  %or = or i64 %19, %conv20
  store i64 %or, ptr %ret, align 8
  br label %while.cond, !llvm.loop !9

while.end:                                        ; preds = %while.cond
  br label %if.end22

if.else21:                                        ; preds = %if.else
  %20 = load i64, ptr %i, align 8
  store i64 %20, ptr %ret, align 8
  br label %if.end22

if.end22:                                         ; preds = %if.else21, %while.end
  br label %if.end23

if.end23:                                         ; preds = %if.end22, %if.then3
  %21 = load i64, ptr %ret, align 8
  %cmp24 = icmp ugt i64 %21, 9223372036854775807
  br i1 %cmp24, label %if.then26, label %if.end27

if.then26:                                        ; preds = %if.end23
  store i32 0, ptr %retval, align 4
  br label %return

if.end27:                                         ; preds = %if.end23
  %22 = load ptr, ptr %p, align 8
  %23 = load ptr, ptr %pp.addr, align 8
  store ptr %22, ptr %23, align 8
  %24 = load i64, ptr %ret, align 8
  %25 = load ptr, ptr %rl.addr, align 8
  store i64 %24, ptr %25, align 8
  store i32 1, ptr %retval, align 4
  br label %return

return:                                           ; preds = %if.end27, %if.then26, %if.then14, %if.then
  %26 = load i32, ptr %retval, align 4
  ret i32 %26
}

; Function Attrs: nounwind uwtable
define hidden i32 @ASN1_get_object(ptr noundef %pp, ptr noundef %plength, ptr noundef %ptag, ptr noundef %pclass, i64 noundef %omax) #0 {
entry:
  %retval = alloca i32, align 4
  %pp.addr = alloca ptr, align 8
  %plength.addr = alloca ptr, align 8
  %ptag.addr = alloca ptr, align 8
  %pclass.addr = alloca ptr, align 8
  %omax.addr = alloca i64, align 8
  %i = alloca i32, align 4
  %ret = alloca i32, align 4
  %l = alloca i64, align 8
  %p = alloca ptr, align 8
  %tag = alloca i32, align 4
  %xclass = alloca i32, align 4
  %inf = alloca i32, align 4
  %max = alloca i64, align 8
  store ptr %pp, ptr %pp.addr, align 8
  store ptr %plength, ptr %plength.addr, align 8
  store ptr %ptag, ptr %ptag.addr, align 8
  store ptr %pclass, ptr %pclass.addr, align 8
  store i64 %omax, ptr %omax.addr, align 8
  %0 = load ptr, ptr %pp.addr, align 8
  %1 = load ptr, ptr %0, align 8
  store ptr %1, ptr %p, align 8
  %2 = load i64, ptr %omax.addr, align 8
  store i64 %2, ptr %max, align 8
  %3 = load i64, ptr %max, align 8
  %tobool = icmp ne i64 %3, 0
  br i1 %tobool, label %if.end, label %if.then

if.then:                                          ; preds = %entry
  br label %err

if.end:                                           ; preds = %entry
  %4 = load ptr, ptr %p, align 8
  %5 = load i8, ptr %4, align 1
  %conv = zext i8 %5 to i32
  %and = and i32 %conv, 32
  store i32 %and, ptr %ret, align 4
  %6 = load ptr, ptr %p, align 8
  %7 = load i8, ptr %6, align 1
  %conv1 = zext i8 %7 to i32
  %and2 = and i32 %conv1, 192
  store i32 %and2, ptr %xclass, align 4
  %8 = load ptr, ptr %p, align 8
  %9 = load i8, ptr %8, align 1
  %conv3 = zext i8 %9 to i32
  %and4 = and i32 %conv3, 31
  store i32 %and4, ptr %i, align 4
  %10 = load i32, ptr %i, align 4
  %cmp = icmp eq i32 %10, 31
  br i1 %cmp, label %if.then6, label %if.else

if.then6:                                         ; preds = %if.end
  %11 = load ptr, ptr %p, align 8
  %incdec.ptr = getelementptr inbounds i8, ptr %11, i32 1
  store ptr %incdec.ptr, ptr %p, align 8
  %12 = load i64, ptr %max, align 8
  %dec = add nsw i64 %12, -1
  store i64 %dec, ptr %max, align 8
  %cmp7 = icmp eq i64 %dec, 0
  br i1 %cmp7, label %if.then9, label %if.end10

if.then9:                                         ; preds = %if.then6
  br label %err

if.end10:                                         ; preds = %if.then6
  store i64 0, ptr %l, align 8
  br label %while.cond

while.cond:                                       ; preds = %if.end26, %if.end10
  %13 = load ptr, ptr %p, align 8
  %14 = load i8, ptr %13, align 1
  %conv11 = zext i8 %14 to i32
  %and12 = and i32 %conv11, 128
  %tobool13 = icmp ne i32 %and12, 0
  br i1 %tobool13, label %while.body, label %while.end

while.body:                                       ; preds = %while.cond
  %15 = load i64, ptr %l, align 8
  %shl = shl i64 %15, 7
  store i64 %shl, ptr %l, align 8
  %16 = load ptr, ptr %p, align 8
  %incdec.ptr14 = getelementptr inbounds i8, ptr %16, i32 1
  store ptr %incdec.ptr14, ptr %p, align 8
  %17 = load i8, ptr %16, align 1
  %conv15 = zext i8 %17 to i32
  %and16 = and i32 %conv15, 127
  %conv17 = sext i32 %and16 to i64
  %18 = load i64, ptr %l, align 8
  %or = or i64 %18, %conv17
  store i64 %or, ptr %l, align 8
  %19 = load i64, ptr %max, align 8
  %dec18 = add nsw i64 %19, -1
  store i64 %dec18, ptr %max, align 8
  %cmp19 = icmp eq i64 %dec18, 0
  br i1 %cmp19, label %if.then21, label %if.end22

if.then21:                                        ; preds = %while.body
  br label %err

if.end22:                                         ; preds = %while.body
  %20 = load i64, ptr %l, align 8
  %cmp23 = icmp sgt i64 %20, 16777215
  br i1 %cmp23, label %if.then25, label %if.end26

if.then25:                                        ; preds = %if.end22
  br label %err

if.end26:                                         ; preds = %if.end22
  br label %while.cond, !llvm.loop !7

while.end:                                        ; preds = %while.cond
  %21 = load i64, ptr %l, align 8
  %shl27 = shl i64 %21, 7
  store i64 %shl27, ptr %l, align 8
  %22 = load ptr, ptr %p, align 8
  %incdec.ptr28 = getelementptr inbounds i8, ptr %22, i32 1
  store ptr %incdec.ptr28, ptr %p, align 8
  %23 = load i8, ptr %22, align 1
  %conv29 = zext i8 %23 to i32
  %and30 = and i32 %conv29, 127
  %conv31 = sext i32 %and30 to i64
  %24 = load i64, ptr %l, align 8
  %or32 = or i64 %24, %conv31
  store i64 %or32, ptr %l, align 8
  %25 = load i64, ptr %l, align 8
  %conv33 = trunc i64 %25 to i32
  store i32 %conv33, ptr %tag, align 4
  %26 = load i64, ptr %max, align 8
  %dec34 = add nsw i64 %26, -1
  store i64 %dec34, ptr %max, align 8
  %cmp35 = icmp eq i64 %dec34, 0
  br i1 %cmp35, label %if.then37, label %if.end38

if.then37:                                        ; preds = %while.end
  br label %err

if.end38:                                         ; preds = %while.end
  br label %if.end45

if.else:                                          ; preds = %if.end
  %27 = load i32, ptr %i, align 4
  store i32 %27, ptr %tag, align 4
  %28 = load ptr, ptr %p, align 8
  %incdec.ptr39 = getelementptr inbounds i8, ptr %28, i32 1
  store ptr %incdec.ptr39, ptr %p, align 8
  %29 = load i64, ptr %max, align 8
  %dec40 = add nsw i64 %29, -1
  store i64 %dec40, ptr %max, align 8
  %cmp41 = icmp eq i64 %dec40, 0
  br i1 %cmp41, label %if.then43, label %if.end44

if.then43:                                        ; preds = %if.else
  br label %err

if.end44:                                         ; preds = %if.else
  br label %if.end45

if.end45:                                         ; preds = %if.end44, %if.end38
  %30 = load i32, ptr %xclass, align 4
  %cmp46 = icmp eq i32 %30, 0
  br i1 %cmp46, label %land.lhs.true, label %if.end51

land.lhs.true:                                    ; preds = %if.end45
  %31 = load i32, ptr %tag, align 4
  %cmp48 = icmp sgt i32 %31, 255
  br i1 %cmp48, label %if.then50, label %if.end51

if.then50:                                        ; preds = %land.lhs.true
  br label %err

if.end51:                                         ; preds = %land.lhs.true, %if.end45
  %32 = load i32, ptr %tag, align 4
  %33 = load ptr, ptr %ptag.addr, align 8
  store i32 %32, ptr %33, align 4
  %34 = load i32, ptr %xclass, align 4
  %35 = load ptr, ptr %pclass.addr, align 8
  store i32 %34, ptr %35, align 4
  %36 = load ptr, ptr %plength.addr, align 8
  %37 = load i64, ptr %max, align 8
  %call = call i32 @asn1_get_length(ptr noundef %p, ptr noundef %inf, ptr noundef %36, i64 noundef %37)
  %tobool52 = icmp ne i32 %call, 0
  br i1 %tobool52, label %if.end54, label %if.then53

if.then53:                                        ; preds = %if.end51
  br label %err

if.end54:                                         ; preds = %if.end51
  %38 = load i32, ptr %inf, align 4
  %tobool55 = icmp ne i32 %38, 0
  br i1 %tobool55, label %land.lhs.true56, label %if.end60

land.lhs.true56:                                  ; preds = %if.end54
  %39 = load i32, ptr %ret, align 4
  %and57 = and i32 %39, 32
  %tobool58 = icmp ne i32 %and57, 0
  br i1 %tobool58, label %if.end60, label %if.then59

if.then59:                                        ; preds = %land.lhs.true56
  br label %err

if.end60:                                         ; preds = %land.lhs.true56, %if.end54
  %40 = load ptr, ptr %plength.addr, align 8
  %41 = load i64, ptr %40, align 8
  %42 = load i64, ptr %omax.addr, align 8
  %43 = load ptr, ptr %p, align 8
  %44 = load ptr, ptr %pp.addr, align 8
  %45 = load ptr, ptr %44, align 8
  %sub.ptr.lhs.cast = ptrtoint ptr %43 to i64
  %sub.ptr.rhs.cast = ptrtoint ptr %45 to i64
  %sub.ptr.sub = sub i64 %sub.ptr.lhs.cast, %sub.ptr.rhs.cast
  %sub = sub nsw i64 %42, %sub.ptr.sub
  %cmp61 = icmp sgt i64 %41, %sub
  br i1 %cmp61, label %if.then63, label %if.end65

if.then63:                                        ; preds = %if.end60
  call void @ERR_put_error(i32 noundef 12, i32 noundef 0, i32 noundef 177, ptr noundef @.str, i32 noundef 189)
  %46 = load i32, ptr %ret, align 4
  %or64 = or i32 %46, 128
  store i32 %or64, ptr %ret, align 4
  br label %if.end65

if.end65:                                         ; preds = %if.then63, %if.end60
  %47 = load ptr, ptr %p, align 8
  %48 = load ptr, ptr %pp.addr, align 8
  store ptr %47, ptr %48, align 8
  %49 = load i32, ptr %ret, align 4
  %50 = load i32, ptr %inf, align 4
  %or66 = or i32 %49, %50
  store i32 %or66, ptr %retval, align 4
  br label %return

err:                                              ; preds = %if.then59, %if.then53, %if.then50, %if.then43, %if.then37, %if.then25, %if.then21, %if.then9, %if.then
  call void @ERR_put_error(i32 noundef 12, i32 noundef 0, i32 noundef 123, ptr noundef @.str, i32 noundef 199)
  store i32 128, ptr %retval, align 4
  br label %return

return:                                           ; preds = %err, %if.end65
  %51 = load i32, ptr %retval, align 4
  ret i32 %51
}