; Function Attrs: nounwind uwtable
define hidden range(i32 0, 192) i32 @ASN1_get_object(ptr noundef captures(none) %pp, ptr noundef writeonly captures(none) %plength, ptr noundef writeonly captures(none) %ptag, ptr noundef writeonly captures(none) %pclass, i64 noundef %omax) local_unnamed_addr #1 {
entry:
  %0 = load ptr, ptr %pp, align 8
  %tobool.not = icmp eq i64 %omax, 0
  br i1 %tobool.not, label %err, label %if.end

if.end:                                           ; preds = %entry
  %1 = load i8, ptr %0, align 1
  %conv = zext i8 %1 to i32
  %and = and i32 %conv, 32
  %and2 = and i32 %conv, 192
  %and4 = and i32 %conv, 31
  %cmp = icmp eq i32 %and4, 31
  br i1 %cmp, label %if.then6, label %if.else

if.then6:                                         ; preds = %if.end
  %dec = add nsw i64 %omax, -1
  %cmp7 = icmp eq i64 %dec, 0
  br i1 %cmp7, label %err, label %while.cond

while.cond:                                       ; preds = %if.then6, %while.body
  %.pn = phi ptr [ %p.0, %while.body ], [ %0, %if.then6 ]
  %l.0 = phi i64 [ %or, %while.body ], [ 0, %if.then6 ]
  %max.0 = phi i64 [ %dec18, %while.body ], [ %dec, %if.then6 ]
  %p.0 = getelementptr inbounds nuw i8, ptr %.pn, i64 1
  %2 = load i8, ptr %p.0, align 1
  %tobool13.not = icmp sgt i8 %2, -1
  br i1 %tobool13.not, label %while.end, label %while.body

while.body:                                       ; preds = %while.cond
  %shl = shl i64 %l.0, 7
  %3 = and i8 %2, 127
  %conv17 = zext nneg i8 %3 to i64
  %or = or disjoint i64 %shl, %conv17
  %dec18 = add nsw i64 %max.0, -1
  %cmp19 = icmp eq i64 %dec18, 0
  %cmp23 = icmp sgt i64 %or, 16777215
  %or.cond1 = select i1 %cmp19, i1 true, i1 %cmp23
  br i1 %or.cond1, label %err, label %while.cond, !llvm.loop !7

while.end:                                        ; preds = %while.cond
  %dec34 = add nsw i64 %max.0, -1
  %cmp35 = icmp eq i64 %dec34, 0
  br i1 %cmp35, label %err, label %if.end45

if.else:                                          ; preds = %if.end
  %incdec.ptr39 = getelementptr inbounds nuw i8, ptr %0, i64 1
  %dec40 = add nsw i64 %omax, -1
  %cmp41 = icmp eq i64 %dec40, 0
  br i1 %cmp41, label %err, label %if.end51

if.end45:                                         ; preds = %while.end
  %shl27 = shl i64 %l.0, 7
  %conv31 = zext nneg i8 %2 to i64
  %or32 = or disjoint i64 %shl27, %conv31
  %conv33 = trunc i64 %or32 to i32
  %incdec.ptr28 = getelementptr inbounds nuw i8, ptr %.pn, i64 2
  %cmp46 = icmp eq i32 %and2, 0
  %cmp48 = icmp sgt i32 %conv33, 255
  %or.cond = select i1 %cmp46, i1 %cmp48, i1 false
  br i1 %or.cond, label %err, label %if.end51

if.end51:                                         ; preds = %if.else, %if.end45
  %max.134 = phi i64 [ %dec34, %if.end45 ], [ %dec40, %if.else ]
  %tag.033 = phi i32 [ %conv33, %if.end45 ], [ %and4, %if.else ]
  %p.132 = phi ptr [ %incdec.ptr28, %if.end45 ], [ %incdec.ptr39, %if.else ]
  store i32 %tag.033, ptr %ptag, align 4
  store i32 %and2, ptr %pclass, align 4
  %cmp.i = icmp slt i64 %max.134, 1
  br i1 %cmp.i, label %err, label %if.end.i

if.end.i:                                         ; preds = %if.end51
  %4 = load i8, ptr %p.132, align 1
  %cmp1.i = icmp eq i8 %4, -128
  br i1 %cmp1.i, label %if.end54, label %if.else.i

if.else.i:                                        ; preds = %if.end.i
  %5 = and i8 %4, 127
  %conv5.i = zext nneg i8 %5 to i64
  %incdec.ptr6.i = getelementptr inbounds nuw i8, ptr %p.132, i64 1
  %tobool.not.i = icmp sgt i8 %4, -1
  br i1 %tobool.not.i, label %if.end54.thread, label %if.then9.i

if.then9.i:                                       ; preds = %if.else.i
  %cmp10.i = icmp samesign ult i8 %5, 9
  %cmp12.not.i = icmp samesign ugt i64 %max.134, %conv5.i
  %or.cond.i = select i1 %cmp10.i, i1 %cmp12.not.i, i1 false
  br i1 %or.cond.i, label %while.cond.preheader.i, label %err

while.cond.preheader.i:                           ; preds = %if.then9.i
  %cmp17.not20.i = icmp eq i8 %5, 0
  br i1 %cmp17.not20.i, label %if.end54.thread, label %while.body.i

while.body.i:                                     ; preds = %while.cond.preheader.i, %while.body.i
  %i.023.i = phi i64 [ %dec16.i, %while.body.i ], [ %conv5.i, %while.cond.preheader.i ]
  %ret.122.i = phi i64 [ %or.i, %while.body.i ], [ 0, %while.cond.preheader.i ]
  %p.121.i = phi ptr [ %incdec.ptr19.i, %while.body.i ], [ %incdec.ptr6.i, %while.cond.preheader.i ]
  %dec16.i = add nsw i64 %i.023.i, -1
  %shl.i = shl i64 %ret.122.i, 8
  %incdec.ptr19.i = getelementptr inbounds nuw i8, ptr %p.121.i, i64 1
  %6 = load i8, ptr %p.121.i, align 1
  %conv20.i = zext i8 %6 to i64
  %or.i = or disjoint i64 %shl.i, %conv20.i
  %cmp17.not.i = icmp eq i64 %dec16.i, 0
  br i1 %cmp17.not.i, label %if.end23.i, label %while.body.i, !llvm.loop !9

if.end23.i:                                       ; preds = %while.body.i
  %7 = getelementptr i8, ptr %p.132, i64 %conv5.i
  %scevgep.i = getelementptr i8, ptr %7, i64 1
  %cmp24.i = icmp slt i64 %shl.i, 0
  br i1 %cmp24.i, label %err, label %if.end54.thread

if.end54.thread:                                  ; preds = %if.else.i, %while.cond.preheader.i, %if.end23.i
  %ret.019.i.ph = phi i64 [ 0, %while.cond.preheader.i ], [ %conv5.i, %if.else.i ], [ %or.i, %if.end23.i ]
  %p.018.i.ph = phi ptr [ %incdec.ptr6.i, %while.cond.preheader.i ], [ %incdec.ptr6.i, %if.else.i ], [ %scevgep.i, %if.end23.i ]
  store i64 %ret.019.i.ph, ptr %plength, align 8
  br label %if.end60

if.end54:                                         ; preds = %if.end.i
  %incdec.ptr.i = getelementptr inbounds nuw i8, ptr %p.132, i64 1
  store i64 0, ptr %plength, align 8
  %tobool58.not = icmp eq i32 %and, 0
  br i1 %tobool58.not, label %err, label %if.end60

if.end60:                                         ; preds = %if.end54.thread, %if.end54
  %8 = phi i64 [ %ret.019.i.ph, %if.end54.thread ], [ 0, %if.end54 ]
  %p.018.i46 = phi ptr [ %p.018.i.ph, %if.end54.thread ], [ %incdec.ptr.i, %if.end54 ]
  %inf.045 = phi i32 [ 0, %if.end54.thread ], [ 1, %if.end54 ]
  %9 = load ptr, ptr %pp, align 8
  %sub.ptr.lhs.cast = ptrtoint ptr %p.018.i46 to i64
  %sub.ptr.rhs.cast = ptrtoint ptr %9 to i64
  %sub.ptr.sub.neg = sub i64 %omax, %sub.ptr.lhs.cast
  %sub = add i64 %sub.ptr.sub.neg, %sub.ptr.rhs.cast
  %cmp61 = icmp sgt i64 %8, %sub
  br i1 %cmp61, label %if.then63, label %if.end65

if.then63:                                        ; preds = %if.end60
  tail call void @ERR_put_error(i32 noundef 12, i32 noundef 0, i32 noundef 177, ptr noundef nonnull @.str, i32 noundef 189) #16
  %or64 = or disjoint i32 %and, 128
  br label %if.end65

if.end65:                                         ; preds = %if.then63, %if.end60
  %ret.0 = phi i32 [ %or64, %if.then63 ], [ %and, %if.end60 ]
  store ptr %p.018.i46, ptr %pp, align 8
  %or66 = or i32 %ret.0, %inf.045
  br label %return

err:                                              ; preds = %while.body, %if.end23.i, %if.then9.i, %if.end51, %if.end54, %if.end45, %if.else, %while.end, %if.then6, %entry
  tail call void @ERR_put_error(i32 noundef 12, i32 noundef 0, i32 noundef 123, ptr noundef nonnull @.str, i32 noundef 199) #16
  br label %return

return:                                           ; preds = %err, %if.end65
  %retval.0 = phi i32 [ 128, %err ], [ %or66, %if.end65 ]
  ret i32 %retval.0
}